; Function Attrs: mustprogress nofree norecurse nosync nounwind memory(readwrite, inaccessiblemem: none) uwtable
define dso_local void @_ZN23btReducedDeformableBody28applyInternalVelocityChangesEv(ptr noundef nonnull align 8 captures(none) dereferenceable(3176) initializes((2252, 2256), (2268, 2272)) %0) local_unnamed_addr #13 align 2 {
  %2 = getelementptr inbounds nuw i8, ptr %0, i64 2240
  %3 = getelementptr inbounds nuw i8, ptr %0, i64 2360
  %4 = load float, ptr %2, align 8, !tbaa !138
  %5 = load float, ptr %3, align 8, !tbaa !138
  %6 = fadd float %4, %5
  store float %6, ptr %3, align 8, !tbaa !138
  %7 = getelementptr inbounds nuw i8, ptr %0, i64 2244
  %8 = load float, ptr %7, align 4, !tbaa !138
  %9 = getelementptr inbounds nuw i8, ptr %0, i64 2364
  %10 = load float, ptr %9, align 4, !tbaa !138
  %11 = fadd float %8, %10
  store float %11, ptr %9, align 4, !tbaa !138
  %12 = getelementptr inbounds nuw i8, ptr %0, i64 2248
  %13 = load float, ptr %12, align 8, !tbaa !138
  %14 = getelementptr inbounds nuw i8, ptr %0, i64 2368
  %15 = load float, ptr %14, align 8, !tbaa !138
  %16 = fadd float %13, %15
  store float %16, ptr %14, align 8, !tbaa !138
  %17 = getelementptr inbounds nuw i8, ptr %0, i64 2256
  %18 = getelementptr inbounds nuw i8, ptr %0, i64 2376
  %19 = load float, ptr %17, align 8, !tbaa !138
  %20 = load float, ptr %18, align 8, !tbaa !138
  %21 = fadd float %19, %20
  store float %21, ptr %18, align 8, !tbaa !138
  %22 = getelementptr inbounds nuw i8, ptr %0, i64 2260
  %23 = load float, ptr %22, align 4, !tbaa !138
  %24 = getelementptr inbounds nuw i8, ptr %0, i64 2380
  %25 = load float, ptr %24, align 4, !tbaa !138
  %26 = fadd float %23, %25
  store float %26, ptr %24, align 4, !tbaa !138
  %27 = getelementptr inbounds nuw i8, ptr %0, i64 2264
  %28 = load float, ptr %27, align 8, !tbaa !138
  %29 = getelementptr inbounds nuw i8, ptr %0, i64 2384
  %30 = load float, ptr %29, align 8, !tbaa !138
  %31 = fadd float %28, %30
  store float %31, ptr %29, align 8, !tbaa !138
  %32 = getelementptr inbounds nuw i8, ptr %0, i64 2712
  tail call void @llvm.memset.p0.i64(ptr noundef nonnull align 8 dereferenceable(32) %2, i8 0, i64 32, i1 false)
  %33 = load i32, ptr %32, align 8, !tbaa !132
  %34 = icmp sgt i32 %33, 0
  br i1 %34, label %.lr.ph, label %._crit_edge

.lr.ph:                                           ; preds = %1
  %35 = getelementptr inbounds nuw i8, ptr %0, i64 2288
  %36 = load ptr, ptr %35, align 8, !tbaa !120
  %37 = getelementptr inbounds nuw i8, ptr %0, i64 2832
  %38 = load ptr, ptr %37, align 8, !tbaa !120
  %wide.trip.count = zext nneg i32 %33 to i64
  br label %39

._crit_edge:                                      ; preds = %39, %1
  ret void

39:                                               ; preds = %.lr.ph, %39
  %indvars.iv = phi i64 [ 0, %.lr.ph ], [ %indvars.iv.next, %39 ]
  %40 = getelementptr inbounds nuw float, ptr %36, i64 %indvars.iv
  %41 = load float, ptr %40, align 4, !tbaa !138
  %42 = getelementptr inbounds nuw float, ptr %38, i64 %indvars.iv
  %43 = load float, ptr %42, align 4, !tbaa !138
  %44 = fadd float %41, %43
  store float %44, ptr %42, align 4, !tbaa !138
  store float 0.000000e+00, ptr %40, align 4, !tbaa !138
  %indvars.iv.next = add nuw nsw i64 %indvars.iv, 1
  %exitcond.not = icmp eq i64 %indvars.iv.next, %wide.trip.count
  br i1 %exitcond.not, label %._crit_edge, label %39, !llvm.loop !189
}